target datalayout = "e-m:e-p270:32:32-p271:32:32-p272:64:64-i64:64-i128:128-f80:128-n8:16:32:64-S128"
target triple = "x86_64-unknown-linux-gnu"

%"class.std::__cxx11::basic_string" = type { %"struct.std::__cxx11::basic_string<char>::_Alloc_hider", i64, %union.anon.15 }
%"struct.std::__cxx11::basic_string<char>::_Alloc_hider" = type { ptr }
%union.anon.15 = type { i64, [8 x i8] }

@.str.20 = private unnamed_addr constant [2 x i8] c"}\00", align 1
@.str.45 = private unnamed_addr constant [2 x i8] c"{\00", align 1
@.str.70 = private unnamed_addr constant [54 x i8] c"Unexpected end of file while parsing unknown segment.\00", align 1

; Function Attrs: mustprogress nounwind uwtable
define linkonce_odr noundef zeroext i1 @_ZSteqIcSt11char_traitsIcESaIcEEbRKNSt7__cxx1112basic_stringIT_T0_T1_EEPKS5_(ptr noundef nonnull align 8 dereferenceable(32) %__lhs, ptr noundef %__rhs) #0 comdat {
entry:
  %__lhs.addr = alloca ptr, align 8
  %__rhs.addr = alloca ptr, align 8
  store ptr %__lhs, ptr %__lhs.addr, align 8
  store ptr %__rhs, ptr %__rhs.addr, align 8
  %0 = load ptr, ptr %__lhs.addr, align 8
  %1 = load ptr, ptr %__rhs.addr, align 8
  %call = call noundef i32 @_ZNKSt7__cxx1112basic_stringIcSt11char_traitsIcESaIcEE7compareEPKc(ptr noundef nonnull align 8 dereferenceable(32) %0, ptr noundef %1) #16
  %cmp = icmp eq i32 %call, 0
  ret i1 %cmp
}

; Function Attrs: mustprogress uwtable
define hidden void @_ZN6Assimp11XFileParser22ParseUnknownDataObjectEv(ptr noundef nonnull align 8 dereferenceable(56) %this) #2 align 2 personality ptr @__gxx_personality_v0 {
entry:
  %this.addr = alloca ptr, align 8
  %running = alloca i8, align 1
  %t = alloca %"class.std::__cxx11::basic_string", align 8
  %exn.slot = alloca ptr, align 8
  %ehselector.slot = alloca i32, align 4
  %cleanup.dest.slot = alloca i32, align 4
  %counter = alloca i32, align 4
  %t9 = alloca %"class.std::__cxx11::basic_string", align 8
  store ptr %this, ptr %this.addr, align 8
  %this1 = load ptr, ptr %this.addr, align 8
  store i8 1, ptr %running, align 1
  br label %while.cond

while.cond:                                       ; preds = %cleanup.cont, %entry
  %0 = load i8, ptr %running, align 1
  %tobool = trunc i8 %0 to i1
  br i1 %tobool, label %while.body, label %while.end

while.body:                                       ; preds = %while.cond
  call void @_ZN6Assimp11XFileParser12GetNextTokenB5cxx11Ev(ptr sret(%"class.std::__cxx11::basic_string") align 8 %t, ptr noundef nonnull align 8 dereferenceable(56) %this1)
  %call = call noundef i64 @_ZNKSt7__cxx1112basic_stringIcSt11char_traitsIcESaIcEE6lengthEv(ptr noundef nonnull align 8 dereferenceable(32) %t) #16
  %cmp = icmp eq i64 %call, 0
  br i1 %cmp, label %if.then, label %if.end

if.then:                                          ; preds = %while.body
  invoke void @_ZN6Assimp11XFileParser14ThrowExceptionIJRA54_KcEEEvDpOT_(ptr noundef nonnull align 8 dereferenceable(56) %this1, ptr noundef nonnull align 1 dereferenceable(54) @.str.70) #18
          to label %invoke.cont unwind label %lpad

invoke.cont:                                      ; preds = %if.then
  unreachable

lpad:                                             ; preds = %if.end, %if.then
  %1 = landingpad { ptr, i32 }
          cleanup
  %2 = extractvalue { ptr, i32 } %1, 0
  store ptr %2, ptr %exn.slot, align 8
  %3 = extractvalue { ptr, i32 } %1, 1
  store i32 %3, ptr %ehselector.slot, align 4
  call void @_ZNSt7__cxx1112basic_stringIcSt11char_traitsIcESaIcEED1Ev(ptr noundef nonnull align 8 dereferenceable(32) %t) #16
  br label %eh.resume

if.end:                                           ; preds = %while.body
  %call3 = invoke noundef zeroext i1 @_ZSteqIcSt11char_traitsIcESaIcEEbRKNSt7__cxx1112basic_stringIT_T0_T1_EEPKS5_(ptr noundef nonnull align 8 dereferenceable(32) %t, ptr noundef @.str.45)
          to label %invoke.cont2 unwind label %lpad

invoke.cont2:                                     ; preds = %if.end
  br i1 %call3, label %if.then4, label %if.end5

if.then4:                                         ; preds = %invoke.cont2
  store i32 3, ptr %cleanup.dest.slot, align 4
  br label %cleanup

if.end5:                                          ; preds = %invoke.cont2
  store i32 0, ptr %cleanup.dest.slot, align 4
  br label %cleanup

cleanup:                                          ; preds = %if.end5, %if.then4
  call void @_ZNSt7__cxx1112basic_stringIcSt11char_traitsIcESaIcEED1Ev(ptr noundef nonnull align 8 dereferenceable(32) %t) #16
  %cleanup.dest = load i32, ptr %cleanup.dest.slot, align 4
  switch i32 %cleanup.dest, label %unreachable [
    i32 0, label %cleanup.cont
    i32 3, label %while.end
  ]

cleanup.cont:                                     ; preds = %cleanup
  br label %while.cond, !llvm.loop !22

while.end:                                        ; preds = %cleanup, %while.cond
  store i32 1, ptr %counter, align 4
  br label %while.cond6

while.cond6:                                      ; preds = %if.end23, %while.end
  %4 = load i32, ptr %counter, align 4
  %cmp7 = icmp ugt i32 %4, 0
  br i1 %cmp7, label %while.body8, label %while.end24

while.body8:                                      ; preds = %while.cond6
  call void @_ZN6Assimp11XFileParser12GetNextTokenB5cxx11Ev(ptr sret(%"class.std::__cxx11::basic_string") align 8 %t9, ptr noundef nonnull align 8 dereferenceable(56) %this1)
  %call10 = call noundef i64 @_ZNKSt7__cxx1112basic_stringIcSt11char_traitsIcESaIcEE6lengthEv(ptr noundef nonnull align 8 dereferenceable(32) %t9) #16
  %cmp11 = icmp eq i64 %call10, 0
  br i1 %cmp11, label %if.then12, label %if.end15

if.then12:                                        ; preds = %while.body8
  invoke void @_ZN6Assimp11XFileParser14ThrowExceptionIJRA54_KcEEEvDpOT_(ptr noundef nonnull align 8 dereferenceable(56) %this1, ptr noundef nonnull align 1 dereferenceable(54) @.str.70) #18
          to label %invoke.cont14 unwind label %lpad13

invoke.cont14:                                    ; preds = %if.then12
  unreachable

lpad13:                                           ; preds = %if.else, %if.end15, %if.then12
  %5 = landingpad { ptr, i32 }
          cleanup
  %6 = extractvalue { ptr, i32 } %5, 0
  store ptr %6, ptr %exn.slot, align 8
  %7 = extractvalue { ptr, i32 } %5, 1
  store i32 %7, ptr %ehselector.slot, align 4
  call void @_ZNSt7__cxx1112basic_stringIcSt11char_traitsIcESaIcEED1Ev(ptr noundef nonnull align 8 dereferenceable(32) %t9) #16
  br label %eh.resume

if.end15:                                         ; preds = %while.body8
  %call17 = invoke noundef zeroext i1 @_ZSteqIcSt11char_traitsIcESaIcEEbRKNSt7__cxx1112basic_stringIT_T0_T1_EEPKS5_(ptr noundef nonnull align 8 dereferenceable(32) %t9, ptr noundef @.str.45)
          to label %invoke.cont16 unwind label %lpad13

invoke.cont16:                                    ; preds = %if.end15
  br i1 %call17, label %if.then18, label %if.else

if.then18:                                        ; preds = %invoke.cont16
  %8 = load i32, ptr %counter, align 4
  %inc = add i32 %8, 1
  store i32 %inc, ptr %counter, align 4
  br label %if.end23

if.else:                                          ; preds = %invoke.cont16
  %call20 = invoke noundef zeroext i1 @_ZSteqIcSt11char_traitsIcESaIcEEbRKNSt7__cxx1112basic_stringIT_T0_T1_EEPKS5_(ptr noundef nonnull align 8 dereferenceable(32) %t9, ptr noundef @.str.20)
          to label %invoke.cont19 unwind label %lpad13

invoke.cont19:                                    ; preds = %if.else
  br i1 %call20, label %if.then21, label %if.end22

if.then21:                                        ; preds = %invoke.cont19
  %9 = load i32, ptr %counter, align 4
  %dec = add i32 %9, -1
  store i32 %dec, ptr %counter, align 4
  br label %if.end22

if.end22:                                         ; preds = %if.then21, %invoke.cont19
  br label %if.end23

if.end23:                                         ; preds = %if.end22, %if.then18
  call void @_ZNSt7__cxx1112basic_stringIcSt11char_traitsIcESaIcEED1Ev(ptr noundef nonnull align 8 dereferenceable(32) %t9) #16
  br label %while.cond6, !llvm.loop !23

while.end24:                                      ; preds = %while.cond6
  ret void

eh.resume:                                        ; preds = %lpad13, %lpad
  %exn = load ptr, ptr %exn.slot, align 8
  %sel = load i32, ptr %ehselector.slot, align 4
  %lpad.val = insertvalue { ptr, i32 } poison, ptr %exn, 0
  %lpad.val25 = insertvalue { ptr, i32 } %lpad.val, i32 %sel, 1
  resume { ptr, i32 } %lpad.val25

unreachable:                                      ; preds = %cleanup
  unreachable
}