; Function Attrs: mustprogress uwtable
define hidden void @_ZN6Assimp11XFileParser22ParseUnknownDataObjectEv(ptr noundef nonnull align 8 dereferenceable(56) %this) local_unnamed_addr #0 align 2 personality ptr @__gxx_personality_v0 {
entry:
  %t = alloca %"class.std::__cxx11::basic_string", align 8
  %t9 = alloca %"class.std::__cxx11::basic_string", align 8
  br label %while.cond

while.cond:                                       ; preds = %if.end, %entry
  call void @_ZN6Assimp11XFileParser12GetNextTokenB5cxx11Ev(ptr nonnull sret(%"class.std::__cxx11::basic_string") align 8 %t, ptr noundef nonnull align 8 dereferenceable(56) %this)
  %call = call noundef i64 @_ZNKSt7__cxx1112basic_stringIcSt11char_traitsIcESaIcEE6lengthEv(ptr noundef nonnull align 8 dereferenceable(32) %t) #21
  %cmp = icmp eq i64 %call, 0
  br i1 %cmp, label %if.then, label %if.end

if.then:                                          ; preds = %while.cond
  invoke void @_ZN6Assimp11XFileParser14ThrowExceptionIJRA54_KcEEEvDpOT_(ptr noundef nonnull align 8 dereferenceable(56) %this, ptr noundef nonnull align 1 dereferenceable(54) @.str.70) #23
          to label %invoke.cont unwind label %lpad

invoke.cont:                                      ; preds = %if.then
  unreachable

lpad:                                             ; preds = %if.then
  %0 = landingpad { ptr, i32 }
          cleanup
  br label %eh.resume

if.end:                                           ; preds = %while.cond
  %call.i = call noundef i32 @_ZNKSt7__cxx1112basic_stringIcSt11char_traitsIcESaIcEE7compareEPKc(ptr noundef nonnull align 8 dereferenceable(32) %t, ptr noundef nonnull @.str.45) #21
  %cmp.i = icmp eq i32 %call.i, 0
  call void @_ZNSt7__cxx1112basic_stringIcSt11char_traitsIcESaIcEED1Ev(ptr noundef nonnull align 8 dereferenceable(32) %t) #21
  br i1 %cmp.i, label %while.body8, label %while.cond

while.body8:                                      ; preds = %if.end, %if.end23
  %counter.08 = phi i32 [ %spec.select, %if.end23 ], [ 1, %if.end ]
  call void @_ZN6Assimp11XFileParser12GetNextTokenB5cxx11Ev(ptr nonnull sret(%"class.std::__cxx11::basic_string") align 8 %t9, ptr noundef nonnull align 8 dereferenceable(56) %this)
  %call10 = call noundef i64 @_ZNKSt7__cxx1112basic_stringIcSt11char_traitsIcESaIcEE6lengthEv(ptr noundef nonnull align 8 dereferenceable(32) %t9) #21
  %cmp11 = icmp eq i64 %call10, 0
  br i1 %cmp11, label %if.then12, label %if.end15

if.then12:                                        ; preds = %while.body8
  invoke void @_ZN6Assimp11XFileParser14ThrowExceptionIJRA54_KcEEEvDpOT_(ptr noundef nonnull align 8 dereferenceable(56) %this, ptr noundef nonnull align 1 dereferenceable(54) @.str.70) #23
          to label %invoke.cont14 unwind label %lpad13

invoke.cont14:                                    ; preds = %if.then12
  unreachable

lpad13:                                           ; preds = %if.then12
  %1 = landingpad { ptr, i32 }
          cleanup
  br label %eh.resume

if.end15:                                         ; preds = %while.body8
  %call.i4 = call noundef i32 @_ZNKSt7__cxx1112basic_stringIcSt11char_traitsIcESaIcEE7compareEPKc(ptr noundef nonnull align 8 dereferenceable(32) %t9, ptr noundef nonnull @.str.45) #21
  %cmp.i5 = icmp eq i32 %call.i4, 0
  br i1 %cmp.i5, label %if.end23, label %if.else

if.else:                                          ; preds = %if.end15
  %call.i6 = call noundef i32 @_ZNKSt7__cxx1112basic_stringIcSt11char_traitsIcESaIcEE7compareEPKc(ptr noundef nonnull align 8 dereferenceable(32) %t9, ptr noundef nonnull @.str.20) #21
  %cmp.i7 = icmp eq i32 %call.i6, 0
  %dec = sext i1 %cmp.i7 to i32
  br label %if.end23

if.end23:                                         ; preds = %if.end15, %if.else
  %dec.sink = phi i32 [ %dec, %if.else ], [ 1, %if.end15 ]
  %spec.select = add i32 %counter.08, %dec.sink
  call void @_ZNSt7__cxx1112basic_stringIcSt11char_traitsIcESaIcEED1Ev(ptr noundef nonnull align 8 dereferenceable(32) %t9) #21
  %cmp7.not = icmp eq i32 %spec.select, 0
  br i1 %cmp7.not, label %while.end24, label %while.body8, !llvm.loop !32

while.end24:                                      ; preds = %if.end23
  ret void

eh.resume:                                        ; preds = %lpad13, %lpad
  %t9.sink = phi ptr [ %t9, %lpad13 ], [ %t, %lpad ]
  %.pn = phi { ptr, i32 } [ %1, %lpad13 ], [ %0, %lpad ]
  call void @_ZNSt7__cxx1112basic_stringIcSt11char_traitsIcESaIcEED1Ev(ptr noundef nonnull align 8 dereferenceable(32) %t9.sink) #21
  resume { ptr, i32 } %.pn
}